; Function Attrs: mustprogress nofree norecurse nosync nounwind willreturn memory(read, inaccessiblemem: none) uwtable
define dso_local noundef zeroext i1 @_ZNK11FactPointTo7is_nullEv(ptr noundef nonnull readonly align 8 captures(none) dereferenceable(48) %0) local_unnamed_addr #5 align 2 {
  %2 = getelementptr inbounds nuw i8, ptr %0, i64 24
  %3 = getelementptr inbounds nuw i8, ptr %0, i64 32
  %4 = load ptr, ptr %3, align 8, !tbaa !18
  %5 = load ptr, ptr %2, align 8, !tbaa !4
  %.not = icmp eq ptr %4, %5
  br i1 %.not, label %._crit_edge, label %.lr.ph

.lr.ph:                                           ; preds = %1
  %6 = ptrtoint ptr %4 to i64
  %7 = ptrtoint ptr %5 to i64
  %8 = sub i64 %6, %7
  %9 = ashr exact i64 %8, 3
  %10 = load ptr, ptr @_ZN11FactPointTo8null_ptrE, align 8, !tbaa !19
  %umax = tail call i64 @llvm.umax.i64(i64 %9, i64 1)
  br label %11

11:                                               ; preds = %11, %.lr.ph
  %.05 = phi i64 [ 0, %.lr.ph ], [ %15, %11 ]
  %12 = getelementptr inbounds nuw ptr, ptr %5, i64 %.05
  %13 = load ptr, ptr %12, align 8, !tbaa !19
  %14 = icmp eq ptr %13, %10
  %15 = add nuw i64 %.05, 1
  %exitcond.not = icmp eq i64 %15, %umax
  %or.cond = select i1 %14, i1 true, i1 %exitcond.not
  br i1 %or.cond, label %._crit_edge, label %11, !llvm.loop !21

._crit_edge:                                      ; preds = %11, %1
  %.lcssa = phi i1 [ false, %1 ], [ %14, %11 ]
  ret i1 %.lcssa
}